; Function Attrs: nounwind uwtable
define ptr @l_Array_foldlMUnsafe_fold___at_Std_Tactic_BVDecide_LRAT_Internal_DefaultFormula_performRupCheck___spec__1___boxed(ptr noundef %0, ptr noundef %1, ptr noundef %2, ptr noundef %3, ptr noundef %4, ptr noundef %5) local_unnamed_addr #1 {
  %7 = getelementptr i8, ptr %3, i64 8
  %.val25 = load i64, ptr %7, align 8, !tbaa !12
  %8 = ptrtoint ptr %3 to i64
  %9 = and i64 %8, 1
  %.not = icmp eq i64 %9, 0
  br i1 %.not, label %10, label %lean_dec.exit16

10:                                               ; preds = %6
  %11 = load i32, ptr %3, align 4, !tbaa !4
  %12 = icmp sgt i32 %11, 1
  br i1 %12, label %13, label %15, !prof !11

13:                                               ; preds = %10
  %14 = add nsw i32 %11, -1
  store i32 %14, ptr %3, align 4, !tbaa !4
  br label %lean_dec.exit16

15:                                               ; preds = %10
  %.not.i = icmp eq i32 %11, 0
  br i1 %.not.i, label %lean_dec.exit16, label %16

16:                                               ; preds = %15
  tail call void @lean_dec_ref_cold(ptr noundef nonnull %3) #5
  br label %lean_dec.exit16

lean_dec.exit16:                                  ; preds = %16, %15, %13, %6
  %17 = getelementptr i8, ptr %4, i64 8
  %.val = load i64, ptr %17, align 8, !tbaa !12
  %18 = ptrtoint ptr %4 to i64
  %19 = and i64 %18, 1
  %.not27 = icmp eq i64 %19, 0
  br i1 %.not27, label %20, label %lean_dec.exit15

20:                                               ; preds = %lean_dec.exit16
  %21 = load i32, ptr %4, align 4, !tbaa !4
  %22 = icmp sgt i32 %21, 1
  br i1 %22, label %23, label %25, !prof !11

23:                                               ; preds = %20
  %24 = add nsw i32 %21, -1
  store i32 %24, ptr %4, align 4, !tbaa !4
  br label %lean_dec.exit15

25:                                               ; preds = %20
  %.not.i17 = icmp eq i32 %21, 0
  br i1 %.not.i17, label %lean_dec.exit15, label %26

26:                                               ; preds = %25
  tail call void @lean_dec_ref_cold(ptr noundef nonnull %4) #5
  br label %lean_dec.exit15

lean_dec.exit15:                                  ; preds = %26, %25, %23, %lean_dec.exit16
  %.not29.i = icmp eq i64 %.val25, %.val
  br i1 %.not29.i, label %l_Array_foldlMUnsafe_fold___at_Std_Tactic_BVDecide_LRAT_Internal_DefaultFormula_performRupCheck___spec__1.exit, label %.lr.ph.i

.lr.ph.i:                                         ; preds = %lean_dec.exit15
  %27 = getelementptr inbounds nuw i8, ptr %2, i64 24
  br label %28

28:                                               ; preds = %48, %.lr.ph.i
  %.01731.i = phi i64 [ %.val25, %.lr.ph.i ], [ %50, %48 ]
  %.01930.i = phi ptr [ %5, %.lr.ph.i ], [ %49, %48 ]
  %29 = getelementptr inbounds nuw [0 x ptr], ptr %27, i64 0, i64 %.01731.i
  %30 = load ptr, ptr %29, align 8, !tbaa !9
  %31 = ptrtoint ptr %30 to i64
  %32 = and i64 %31, 1
  %.not.i21.i = icmp eq i64 %32, 0
  br i1 %.not.i21.i, label %33, label %lean_array_uget.exit.i

33:                                               ; preds = %28
  %.val.i.i.i = load i32, ptr %30, align 4, !tbaa !4
  %34 = icmp sgt i32 %.val.i.i.i, 0
  br i1 %34, label %35, label %37, !prof !11

35:                                               ; preds = %33
  %36 = add nuw i32 %.val.i.i.i, 1
  store i32 %36, ptr %30, align 4, !tbaa !4
  br label %40

37:                                               ; preds = %33
  %.not.i.i.i = icmp eq i32 %.val.i.i.i, 0
  br i1 %.not.i.i.i, label %40, label %38

38:                                               ; preds = %37
  tail call void @lean_inc_ref_cold(ptr noundef nonnull %30) #5
  br label %40

lean_array_uget.exit.i:                           ; preds = %28
  %39 = tail call ptr @l_Std_Tactic_BVDecide_LRAT_Internal_DefaultFormula_confirmRupHint(ptr noundef %0, ptr noundef readonly %1, ptr noundef %.01930.i, ptr noundef %30)
  br label %48

40:                                               ; preds = %38, %37, %35
  %41 = tail call ptr @l_Std_Tactic_BVDecide_LRAT_Internal_DefaultFormula_confirmRupHint(ptr noundef %0, ptr noundef readonly %1, ptr noundef %.01930.i, ptr noundef nonnull %30)
  %42 = load i32, ptr %30, align 4, !tbaa !4
  %43 = icmp sgt i32 %42, 1
  br i1 %43, label %44, label %46, !prof !11

44:                                               ; preds = %40
  %45 = add nsw i32 %42, -1
  store i32 %45, ptr %30, align 4, !tbaa !4
  br label %48

46:                                               ; preds = %40
  %.not.i.i = icmp eq i32 %42, 0
  br i1 %.not.i.i, label %48, label %47

47:                                               ; preds = %46
  tail call void @lean_dec_ref_cold(ptr noundef nonnull %30) #5
  br label %48

48:                                               ; preds = %47, %46, %44, %lean_array_uget.exit.i
  %49 = phi ptr [ %39, %lean_array_uget.exit.i ], [ %41, %44 ], [ %41, %46 ], [ %41, %47 ]
  %50 = add i64 %.01731.i, 1
  %.not.i26 = icmp eq i64 %50, %.val
  br i1 %.not.i26, label %l_Array_foldlMUnsafe_fold___at_Std_Tactic_BVDecide_LRAT_Internal_DefaultFormula_performRupCheck___spec__1.exit, label %28

l_Array_foldlMUnsafe_fold___at_Std_Tactic_BVDecide_LRAT_Internal_DefaultFormula_performRupCheck___spec__1.exit: ; preds = %48, %lean_dec.exit15
  %.019.lcssa.i = phi ptr [ %5, %lean_dec.exit15 ], [ %49, %48 ]
  %51 = ptrtoint ptr %2 to i64
  %52 = and i64 %51, 1
  %.not28 = icmp eq i64 %52, 0
  br i1 %.not28, label %53, label %lean_dec.exit14

53:                                               ; preds = %l_Array_foldlMUnsafe_fold___at_Std_Tactic_BVDecide_LRAT_Internal_DefaultFormula_performRupCheck___spec__1.exit
  %54 = load i32, ptr %2, align 4, !tbaa !4
  %55 = icmp sgt i32 %54, 1
  br i1 %55, label %56, label %58, !prof !11

56:                                               ; preds = %53
  %57 = add nsw i32 %54, -1
  store i32 %57, ptr %2, align 4, !tbaa !4
  br label %lean_dec.exit14

58:                                               ; preds = %53
  %.not.i19 = icmp eq i32 %54, 0
  br i1 %.not.i19, label %lean_dec.exit14, label %59

59:                                               ; preds = %58
  tail call void @lean_dec_ref_cold(ptr noundef nonnull %2) #5
  br label %lean_dec.exit14

lean_dec.exit14:                                  ; preds = %59, %58, %56, %l_Array_foldlMUnsafe_fold___at_Std_Tactic_BVDecide_LRAT_Internal_DefaultFormula_performRupCheck___spec__1.exit
  %60 = ptrtoint ptr %1 to i64
  %61 = and i64 %60, 1
  %.not29 = icmp eq i64 %61, 0
  br i1 %.not29, label %62, label %lean_dec.exit13

62:                                               ; preds = %lean_dec.exit14
  %63 = load i32, ptr %1, align 4, !tbaa !4
  %64 = icmp sgt i32 %63, 1
  br i1 %64, label %65, label %67, !prof !11

65:                                               ; preds = %62
  %66 = add nsw i32 %63, -1
  store i32 %66, ptr %1, align 4, !tbaa !4
  br label %lean_dec.exit13

67:                                               ; preds = %62
  %.not.i21 = icmp eq i32 %63, 0
  br i1 %.not.i21, label %lean_dec.exit13, label %68

68:                                               ; preds = %67
  tail call void @lean_dec_ref_cold(ptr noundef nonnull %1) #5
  br label %lean_dec.exit13

lean_dec.exit13:                                  ; preds = %68, %67, %65, %lean_dec.exit14
  %69 = ptrtoint ptr %0 to i64
  %70 = and i64 %69, 1
  %.not30 = icmp eq i64 %70, 0
  br i1 %.not30, label %71, label %lean_dec.exit

71:                                               ; preds = %lean_dec.exit13
  %72 = load i32, ptr %0, align 4, !tbaa !4
  %73 = icmp sgt i32 %72, 1
  br i1 %73, label %74, label %76, !prof !11

74:                                               ; preds = %71
  %75 = add nsw i32 %72, -1
  store i32 %75, ptr %0, align 4, !tbaa !4
  br label %lean_dec.exit

76:                                               ; preds = %71
  %.not.i23 = icmp eq i32 %72, 0
  br i1 %.not.i23, label %lean_dec.exit, label %77

77:                                               ; preds = %76
  tail call void @lean_dec_ref_cold(ptr noundef nonnull %0) #5
  br label %lean_dec.exit

lean_dec.exit:                                    ; preds = %77, %76, %74, %lean_dec.exit13
  ret ptr %.019.lcssa.i
}